target datalayout = "e-m:e-p270:32:32-p271:32:32-p272:64:64-i64:64-i128:128-f80:128-n8:16:32:64-S128"
target triple = "x86_64-pc-linux-gnu"

%struct.aofInfo = type { ptr, i64, i32, i64, i64 }
%struct.aofManifest = type { ptr, ptr, ptr, i64, i64, i32 }
%struct.listIter = type { ptr, i32 }
%struct.listNode = type { ptr, ptr, ptr }

@.str.1 = private unnamed_addr constant [6 x i8] c"aof.c\00", align 1
@.str.35 = private unnamed_addr constant [51 x i8] c"am->base_aof_info->file_type == AOF_FILE_TYPE_BASE\00", align 1
@.str.42 = private unnamed_addr constant [36 x i8] c"ai->file_type == AOF_FILE_TYPE_INCR\00", align 1

; Function Attrs: nounwind uwtable
define dso_local i64 @getBaseAndIncrAppendOnlyFilesSize(ptr noundef %0, ptr noundef %1) #0 {
  %3 = alloca i64, align 8
  %4 = alloca ptr, align 8
  %5 = alloca ptr, align 8
  %6 = alloca i64, align 8
  %7 = alloca ptr, align 8
  %8 = alloca %struct.listIter, align 8
  %9 = alloca i32, align 4
  %10 = alloca ptr, align 8
  store ptr %0, ptr %4, align 8, !tbaa !5
  store ptr %1, ptr %5, align 8, !tbaa !88
  call void @llvm.lifetime.start.p0(i64 8, ptr %6) #12
  store i64 0, ptr %6, align 8, !tbaa !23
  call void @llvm.lifetime.start.p0(i64 8, ptr %7) #12
  call void @llvm.lifetime.start.p0(i64 16, ptr %8) #12
  %11 = load ptr, ptr %4, align 8, !tbaa !5
  %12 = getelementptr inbounds nuw %struct.aofManifest, ptr %11, i32 0, i32 0
  %13 = load ptr, ptr %12, align 8, !tbaa !33
  %14 = icmp ne ptr %13, null
  br i1 %14, label %15, label %46

15:                                               ; preds = %2
  %16 = load ptr, ptr %4, align 8, !tbaa !5
  %17 = getelementptr inbounds nuw %struct.aofManifest, ptr %16, i32 0, i32 0
  %18 = load ptr, ptr %17, align 8, !tbaa !33
  %19 = getelementptr inbounds nuw %struct.aofInfo, ptr %18, i32 0, i32 2
  %20 = load i32, ptr %19, align 8, !tbaa !17
  %21 = icmp eq i32 %20, 98
  %22 = xor i1 %21, true
  %23 = xor i1 %22, true
  %24 = zext i1 %23 to i32
  %25 = sext i32 %24 to i64
  %26 = call i64 @llvm.expect.i64(i64 %25, i64 1)
  %27 = icmp ne i64 %26, 0
  br i1 %27, label %28, label %29

28:                                               ; preds = %15
  br label %31

29:                                               ; preds = %15
  call void @_serverAssert(ptr noundef @.str.35, ptr noundef @.str.1, i32 noundef 2664)
  call void @abort() #14
  unreachable

30:                                               ; No predecessors!
  br label %31

31:                                               ; preds = %30, %28
  %32 = load ptr, ptr %4, align 8, !tbaa !5
  %33 = getelementptr inbounds nuw %struct.aofManifest, ptr %32, i32 0, i32 0
  %34 = load ptr, ptr %33, align 8, !tbaa !33
  %35 = getelementptr inbounds nuw %struct.aofInfo, ptr %34, i32 0, i32 0
  %36 = load ptr, ptr %35, align 8, !tbaa !15
  %37 = load ptr, ptr %5, align 8, !tbaa !88
  %38 = call i64 @getAppendOnlyFileSize(ptr noundef %36, ptr noundef %37)
  %39 = load i64, ptr %6, align 8, !tbaa !23
  %40 = add nsw i64 %39, %38
  store i64 %40, ptr %6, align 8, !tbaa !23
  %41 = load ptr, ptr %5, align 8, !tbaa !88
  %42 = load i32, ptr %41, align 4, !tbaa !22
  %43 = icmp ne i32 %42, 0
  br i1 %43, label %44, label %45

44:                                               ; preds = %31
  store i64 0, ptr %3, align 8
  store i32 1, ptr %9, align 4
  br label %88

45:                                               ; preds = %31
  br label %46

46:                                               ; preds = %45, %2
  %47 = load ptr, ptr %4, align 8, !tbaa !5
  %48 = getelementptr inbounds nuw %struct.aofManifest, ptr %47, i32 0, i32 1
  %49 = load ptr, ptr %48, align 8, !tbaa !25
  call void @listRewind(ptr noundef %49, ptr noundef %8)
  br label %50

50:                                               ; preds = %85, %46
  %51 = call ptr @listNext(ptr noundef %8)
  store ptr %51, ptr %7, align 8, !tbaa !59
  %52 = icmp ne ptr %51, null
  br i1 %52, label %53, label %86

53:                                               ; preds = %50
  call void @llvm.lifetime.start.p0(i64 8, ptr %10) #12
  %54 = load ptr, ptr %7, align 8, !tbaa !59
  %55 = getelementptr inbounds nuw %struct.listNode, ptr %54, i32 0, i32 2
  %56 = load ptr, ptr %55, align 8, !tbaa !60
  store ptr %56, ptr %10, align 8, !tbaa !5
  %57 = load ptr, ptr %10, align 8, !tbaa !5
  %58 = getelementptr inbounds nuw %struct.aofInfo, ptr %57, i32 0, i32 2
  %59 = load i32, ptr %58, align 8, !tbaa !17
  %60 = icmp eq i32 %59, 105
  %61 = xor i1 %60, true
  %62 = xor i1 %61, true
  %63 = zext i1 %62 to i32
  %64 = sext i32 %63 to i64
  %65 = call i64 @llvm.expect.i64(i64 %64, i64 1)
  %66 = icmp ne i64 %65, 0
  br i1 %66, label %67, label %68

67:                                               ; preds = %53
  br label %70

68:                                               ; preds = %53
  call void @_serverAssert(ptr noundef @.str.42, ptr noundef @.str.1, i32 noundef 2673)
  call void @abort() #14
  unreachable

69:                                               ; No predecessors!
  br label %70

70:                                               ; preds = %69, %67
  %71 = load ptr, ptr %10, align 8, !tbaa !5
  %72 = getelementptr inbounds nuw %struct.aofInfo, ptr %71, i32 0, i32 0
  %73 = load ptr, ptr %72, align 8, !tbaa !15
  %74 = load ptr, ptr %5, align 8, !tbaa !88
  %75 = call i64 @getAppendOnlyFileSize(ptr noundef %73, ptr noundef %74)
  %76 = load i64, ptr %6, align 8, !tbaa !23
  %77 = add nsw i64 %76, %75
  store i64 %77, ptr %6, align 8, !tbaa !23
  %78 = load ptr, ptr %5, align 8, !tbaa !88
  %79 = load i32, ptr %78, align 4, !tbaa !22
  %80 = icmp ne i32 %79, 0
  br i1 %80, label %81, label %82

81:                                               ; preds = %70
  store i64 0, ptr %3, align 8
  store i32 1, ptr %9, align 4
  br label %83

82:                                               ; preds = %70
  store i32 0, ptr %9, align 4
  br label %83

83:                                               ; preds = %82, %81
  call void @llvm.lifetime.end.p0(i64 8, ptr %10) #12
  %84 = load i32, ptr %9, align 4
  switch i32 %84, label %88 [
    i32 0, label %85
  ]

85:                                               ; preds = %83
  br label %50, !llvm.loop !172

86:                                               ; preds = %50
  %87 = load i64, ptr %6, align 8, !tbaa !23
  store i64 %87, ptr %3, align 8
  store i32 1, ptr %9, align 4
  br label %88

88:                                               ; preds = %86, %83, %44
  call void @llvm.lifetime.end.p0(i64 16, ptr %8) #12
  call void @llvm.lifetime.end.p0(i64 8, ptr %7) #12
  call void @llvm.lifetime.end.p0(i64 8, ptr %6) #12
  %89 = load i64, ptr %3, align 8
  ret i64 %89
}