; Function Attrs: nounwind uwtable
define dso_local i64 @getBaseAndIncrAppendOnlyFilesSize(ptr noundef readonly captures(none) %0, ptr noundef captures(address_is_null) %1) local_unnamed_addr #0 {
  %3 = alloca %struct.listIter, align 8
  call void @llvm.lifetime.start.p0(i64 16, ptr nonnull %3) #20
  %4 = load ptr, ptr %0, align 8, !tbaa !32
  %.not = icmp eq ptr %4, null
  br i1 %.not, label %14, label %5

5:                                                ; preds = %2
  %6 = getelementptr inbounds nuw i8, ptr %4, i64 16
  %7 = load i32, ptr %6, align 8, !tbaa !15
  %8 = icmp eq i32 %7, 98
  br i1 %8, label %10, label %9, !prof !71

9:                                                ; preds = %5
  tail call void @_serverAssert(ptr noundef nonnull @.str.35, ptr noundef nonnull @.str.1, i32 noundef 2664) #20
  tail call void @abort() #21
  unreachable

10:                                               ; preds = %5
  %11 = load ptr, ptr %4, align 8, !tbaa !6
  %12 = tail call i64 @getAppendOnlyFileSize(ptr noundef %11, ptr noundef %1)
  %13 = load i32, ptr %1, align 4, !tbaa !21
  %.not20 = icmp eq i32 %13, 0
  br i1 %.not20, label %14, label %.loopexit

14:                                               ; preds = %10, %2
  %.016 = phi i64 [ %12, %10 ], [ 0, %2 ]
  %15 = getelementptr inbounds nuw i8, ptr %0, i64 8
  %16 = load ptr, ptr %15, align 8, !tbaa !24
  call void @listRewind(ptr noundef %16, ptr noundef nonnull %3) #20
  br label %17

17:                                               ; preds = %26, %14
  %.117 = phi i64 [ %.016, %14 ], [ %29, %26 ]
  %18 = call ptr @listNext(ptr noundef nonnull %3) #20
  %.not21 = icmp eq ptr %18, null
  br i1 %.not21, label %.loopexit, label %19

19:                                               ; preds = %17
  %20 = getelementptr inbounds nuw i8, ptr %18, i64 16
  %21 = load ptr, ptr %20, align 8, !tbaa !58
  %22 = getelementptr inbounds nuw i8, ptr %21, i64 16
  %23 = load i32, ptr %22, align 8, !tbaa !15
  %24 = icmp eq i32 %23, 105
  br i1 %24, label %26, label %25, !prof !71

25:                                               ; preds = %19
  call void @_serverAssert(ptr noundef nonnull @.str.42, ptr noundef nonnull @.str.1, i32 noundef 2673) #20
  call void @abort() #21
  unreachable

26:                                               ; preds = %19
  %27 = load ptr, ptr %21, align 8, !tbaa !6
  %28 = call i64 @getAppendOnlyFileSize(ptr noundef %27, ptr noundef %1)
  %29 = add nsw i64 %28, %.117
  %30 = load i32, ptr %1, align 4, !tbaa !21
  %.not22 = icmp eq i32 %30, 0
  br i1 %.not22, label %17, label %.loopexit, !llvm.loop !155

.loopexit:                                        ; preds = %17, %26, %10
  %.0 = phi i64 [ 0, %10 ], [ %.117, %17 ], [ 0, %26 ]
  call void @llvm.lifetime.end.p0(i64 16, ptr nonnull %3) #20
  ret i64 %.0
}